target datalayout = "e-m:e-p270:32:32-p271:32:32-p272:64:64-i64:64-i128:128-f80:128-n8:16:32:64-S128"
target triple = "x86_64-unknown-linux-gnu"

%class.aiQuaterniont = type { float, float, float, float }
%class.aiVector3t = type { float, float, float }

; Function Attrs: mustprogress nounwind uwtable
define linkonce_odr hidden void @_ZN10aiVector3tIfEC2Efff(ptr noundef nonnull align 4 dereferenceable(12) %this, float noundef %_x, float noundef %_y, float noundef %_z) unnamed_addr #0 comdat align 2 {
entry:
  %this.addr = alloca ptr, align 8
  %_x.addr = alloca float, align 4
  %_y.addr = alloca float, align 4
  %_z.addr = alloca float, align 4
  store ptr %this, ptr %this.addr, align 8
  store float %_x, ptr %_x.addr, align 4
  store float %_y, ptr %_y.addr, align 4
  store float %_z, ptr %_z.addr, align 4
  %this1 = load ptr, ptr %this.addr, align 8
  %x = getelementptr inbounds %class.aiVector3t, ptr %this1, i32 0, i32 0
  %0 = load float, ptr %_x.addr, align 4
  store float %0, ptr %x, align 4
  %y = getelementptr inbounds %class.aiVector3t, ptr %this1, i32 0, i32 1
  %1 = load float, ptr %_y.addr, align 4
  store float %1, ptr %y, align 4
  %z = getelementptr inbounds %class.aiVector3t, ptr %this1, i32 0, i32 2
  %2 = load float, ptr %_z.addr, align 4
  store float %2, ptr %z, align 4
  ret void
}

; Function Attrs: mustprogress uwtable
define linkonce_odr hidden { <2 x float>, <2 x float> } @_ZNK13aiQuaterniontIfEmlERKS0_(ptr noundef nonnull align 4 dereferenceable(16) %this, ptr noundef nonnull align 4 dereferenceable(16) %t) #5 comdat align 2 {
entry:
  %retval = alloca %class.aiQuaterniont, align 4
  %this.addr = alloca ptr, align 8
  %t.addr = alloca ptr, align 8
  store ptr %this, ptr %this.addr, align 8
  store ptr %t, ptr %t.addr, align 8
  %this1 = load ptr, ptr %this.addr, align 8
  %w = getelementptr inbounds %class.aiQuaterniont, ptr %this1, i32 0, i32 0
  %0 = load float, ptr %w, align 4
  %1 = load ptr, ptr %t.addr, align 8
  %w2 = getelementptr inbounds %class.aiQuaterniont, ptr %1, i32 0, i32 0
  %2 = load float, ptr %w2, align 4
  %x = getelementptr inbounds %class.aiQuaterniont, ptr %this1, i32 0, i32 1
  %3 = load float, ptr %x, align 4
  %4 = load ptr, ptr %t.addr, align 8
  %x3 = getelementptr inbounds %class.aiQuaterniont, ptr %4, i32 0, i32 1
  %5 = load float, ptr %x3, align 4
  %mul4 = fmul float %3, %5
  %neg = fneg float %mul4
  %6 = call float @llvm.fmuladd.f32(float %0, float %2, float %neg)
  %y = getelementptr inbounds %class.aiQuaterniont, ptr %this1, i32 0, i32 2
  %7 = load float, ptr %y, align 4
  %8 = load ptr, ptr %t.addr, align 8
  %y5 = getelementptr inbounds %class.aiQuaterniont, ptr %8, i32 0, i32 2
  %9 = load float, ptr %y5, align 4
  %neg6 = fneg float %7
  %10 = call float @llvm.fmuladd.f32(float %neg6, float %9, float %6)
  %z = getelementptr inbounds %class.aiQuaterniont, ptr %this1, i32 0, i32 3
  %11 = load float, ptr %z, align 4
  %12 = load ptr, ptr %t.addr, align 8
  %z7 = getelementptr inbounds %class.aiQuaterniont, ptr %12, i32 0, i32 3
  %13 = load float, ptr %z7, align 4
  %neg8 = fneg float %11
  %14 = call float @llvm.fmuladd.f32(float %neg8, float %13, float %10)
  %w9 = getelementptr inbounds %class.aiQuaterniont, ptr %this1, i32 0, i32 0
  %15 = load float, ptr %w9, align 4
  %16 = load ptr, ptr %t.addr, align 8
  %x10 = getelementptr inbounds %class.aiQuaterniont, ptr %16, i32 0, i32 1
  %17 = load float, ptr %x10, align 4
  %x11 = getelementptr inbounds %class.aiQuaterniont, ptr %this1, i32 0, i32 1
  %18 = load float, ptr %x11, align 4
  %19 = load ptr, ptr %t.addr, align 8
  %w12 = getelementptr inbounds %class.aiQuaterniont, ptr %19, i32 0, i32 0
  %20 = load float, ptr %w12, align 4
  %mul13 = fmul float %18, %20
  %21 = call float @llvm.fmuladd.f32(float %15, float %17, float %mul13)
  %y14 = getelementptr inbounds %class.aiQuaterniont, ptr %this1, i32 0, i32 2
  %22 = load float, ptr %y14, align 4
  %23 = load ptr, ptr %t.addr, align 8
  %z15 = getelementptr inbounds %class.aiQuaterniont, ptr %23, i32 0, i32 3
  %24 = load float, ptr %z15, align 4
  %25 = call float @llvm.fmuladd.f32(float %22, float %24, float %21)
  %z16 = getelementptr inbounds %class.aiQuaterniont, ptr %this1, i32 0, i32 3
  %26 = load float, ptr %z16, align 4
  %27 = load ptr, ptr %t.addr, align 8
  %y17 = getelementptr inbounds %class.aiQuaterniont, ptr %27, i32 0, i32 2
  %28 = load float, ptr %y17, align 4
  %neg18 = fneg float %26
  %29 = call float @llvm.fmuladd.f32(float %neg18, float %28, float %25)
  %w19 = getelementptr inbounds %class.aiQuaterniont, ptr %this1, i32 0, i32 0
  %30 = load float, ptr %w19, align 4
  %31 = load ptr, ptr %t.addr, align 8
  %y20 = getelementptr inbounds %class.aiQuaterniont, ptr %31, i32 0, i32 2
  %32 = load float, ptr %y20, align 4
  %y21 = getelementptr inbounds %class.aiQuaterniont, ptr %this1, i32 0, i32 2
  %33 = load float, ptr %y21, align 4
  %34 = load ptr, ptr %t.addr, align 8
  %w22 = getelementptr inbounds %class.aiQuaterniont, ptr %34, i32 0, i32 0
  %35 = load float, ptr %w22, align 4
  %mul23 = fmul float %33, %35
  %36 = call float @llvm.fmuladd.f32(float %30, float %32, float %mul23)
  %z24 = getelementptr inbounds %class.aiQuaterniont, ptr %this1, i32 0, i32 3
  %37 = load float, ptr %z24, align 4
  %38 = load ptr, ptr %t.addr, align 8
  %x25 = getelementptr inbounds %class.aiQuaterniont, ptr %38, i32 0, i32 1
  %39 = load float, ptr %x25, align 4
  %40 = call float @llvm.fmuladd.f32(float %37, float %39, float %36)
  %x26 = getelementptr inbounds %class.aiQuaterniont, ptr %this1, i32 0, i32 1
  %41 = load float, ptr %x26, align 4
  %42 = load ptr, ptr %t.addr, align 8
  %z27 = getelementptr inbounds %class.aiQuaterniont, ptr %42, i32 0, i32 3
  %43 = load float, ptr %z27, align 4
  %neg28 = fneg float %41
  %44 = call float @llvm.fmuladd.f32(float %neg28, float %43, float %40)
  %w29 = getelementptr inbounds %class.aiQuaterniont, ptr %this1, i32 0, i32 0
  %45 = load float, ptr %w29, align 4
  %46 = load ptr, ptr %t.addr, align 8
  %z30 = getelementptr inbounds %class.aiQuaterniont, ptr %46, i32 0, i32 3
  %47 = load float, ptr %z30, align 4
  %z31 = getelementptr inbounds %class.aiQuaterniont, ptr %this1, i32 0, i32 3
  %48 = load float, ptr %z31, align 4
  %49 = load ptr, ptr %t.addr, align 8
  %w32 = getelementptr inbounds %class.aiQuaterniont, ptr %49, i32 0, i32 0
  %50 = load float, ptr %w32, align 4
  %mul33 = fmul float %48, %50
  %51 = call float @llvm.fmuladd.f32(float %45, float %47, float %mul33)
  %x34 = getelementptr inbounds %class.aiQuaterniont, ptr %this1, i32 0, i32 1
  %52 = load float, ptr %x34, align 4
  %53 = load ptr, ptr %t.addr, align 8
  %y35 = getelementptr inbounds %class.aiQuaterniont, ptr %53, i32 0, i32 2
  %54 = load float, ptr %y35, align 4
  %55 = call float @llvm.fmuladd.f32(float %52, float %54, float %51)
  %y36 = getelementptr inbounds %class.aiQuaterniont, ptr %this1, i32 0, i32 2
  %56 = load float, ptr %y36, align 4
  %57 = load ptr, ptr %t.addr, align 8
  %x37 = getelementptr inbounds %class.aiQuaterniont, ptr %57, i32 0, i32 1
  %58 = load float, ptr %x37, align 4
  %neg38 = fneg float %56
  %59 = call float @llvm.fmuladd.f32(float %neg38, float %58, float %55)
  call void @_ZN13aiQuaterniontIfEC2Effff(ptr noundef nonnull align 4 dereferenceable(16) %retval, float noundef %14, float noundef %29, float noundef %44, float noundef %59)
  %60 = load { <2 x float>, <2 x float> }, ptr %retval, align 4
  ret { <2 x float>, <2 x float> } %60
}

; Function Attrs: mustprogress nounwind uwtable
define linkonce_odr hidden noundef nonnull align 4 dereferenceable(16) ptr @_ZN13aiQuaterniontIfE9ConjugateEv(ptr noundef nonnull align 4 dereferenceable(16) %this) #0 comdat align 2 {
entry:
  %this.addr = alloca ptr, align 8
  store ptr %this, ptr %this.addr, align 8
  %this1 = load ptr, ptr %this.addr, align 8
  %x = getelementptr inbounds %class.aiQuaterniont, ptr %this1, i32 0, i32 1
  %0 = load float, ptr %x, align 4
  %fneg = fneg float %0
  %x2 = getelementptr inbounds %class.aiQuaterniont, ptr %this1, i32 0, i32 1
  store float %fneg, ptr %x2, align 4
  %y = getelementptr inbounds %class.aiQuaterniont, ptr %this1, i32 0, i32 2
  %1 = load float, ptr %y, align 4
  %fneg3 = fneg float %1
  %y4 = getelementptr inbounds %class.aiQuaterniont, ptr %this1, i32 0, i32 2
  store float %fneg3, ptr %y4, align 4
  %z = getelementptr inbounds %class.aiQuaterniont, ptr %this1, i32 0, i32 3
  %2 = load float, ptr %z, align 4
  %fneg5 = fneg float %2
  %z6 = getelementptr inbounds %class.aiQuaterniont, ptr %this1, i32 0, i32 3
  store float %fneg5, ptr %z6, align 4
  ret ptr %this1
}

; Function Attrs: mustprogress nounwind uwtable
define linkonce_odr hidden void @_ZN13aiQuaterniontIfEC2Effff(ptr noundef nonnull align 4 dereferenceable(16) %this, float noundef %pw, float noundef %px, float noundef %py, float noundef %pz) unnamed_addr #0 comdat align 2 {
entry:
  %this.addr = alloca ptr, align 8
  %pw.addr = alloca float, align 4
  %px.addr = alloca float, align 4
  %py.addr = alloca float, align 4
  %pz.addr = alloca float, align 4
  store ptr %this, ptr %this.addr, align 8
  store float %pw, ptr %pw.addr, align 4
  store float %px, ptr %px.addr, align 4
  store float %py, ptr %py.addr, align 4
  store float %pz, ptr %pz.addr, align 4
  %this1 = load ptr, ptr %this.addr, align 8
  %w = getelementptr inbounds %class.aiQuaterniont, ptr %this1, i32 0, i32 0
  %0 = load float, ptr %pw.addr, align 4
  store float %0, ptr %w, align 4
  %x = getelementptr inbounds %class.aiQuaterniont, ptr %this1, i32 0, i32 1
  %1 = load float, ptr %px.addr, align 4
  store float %1, ptr %x, align 4
  %y = getelementptr inbounds %class.aiQuaterniont, ptr %this1, i32 0, i32 2
  %2 = load float, ptr %py.addr, align 4
  store float %2, ptr %y, align 4
  %z = getelementptr inbounds %class.aiQuaterniont, ptr %this1, i32 0, i32 3
  %3 = load float, ptr %pz.addr, align 4
  store float %3, ptr %z, align 4
  ret void
}

; Function Attrs: mustprogress uwtable
define linkonce_odr hidden { <2 x float>, float } @_ZNK13aiQuaterniontIfE6RotateERK10aiVector3tIfE(ptr noundef nonnull align 4 dereferenceable(16) %this, ptr noundef nonnull align 4 dereferenceable(12) %v) #12 comdat align 2 {
entry:
  %retval = alloca %class.aiVector3t, align 4
  %this.addr = alloca ptr, align 8
  %v.addr = alloca ptr, align 8
  %q2 = alloca %class.aiQuaterniont, align 4
  %q = alloca %class.aiQuaterniont, align 4
  %qinv = alloca %class.aiQuaterniont, align 4
  %ref.tmp = alloca %class.aiQuaterniont, align 4
  %ref.tmp2 = alloca %class.aiQuaterniont, align 4
  %retval.coerce = alloca { <2 x float>, float }, align 8
  store ptr %this, ptr %this.addr, align 8
  store ptr %v, ptr %v.addr, align 8
  %this1 = load ptr, ptr %this.addr, align 8
  %0 = load ptr, ptr %v.addr, align 8
  %x = getelementptr inbounds %class.aiVector3t, ptr %0, i32 0, i32 0
  %1 = load float, ptr %x, align 4
  %2 = load ptr, ptr %v.addr, align 8
  %y = getelementptr inbounds %class.aiVector3t, ptr %2, i32 0, i32 1
  %3 = load float, ptr %y, align 4
  %4 = load ptr, ptr %v.addr, align 8
  %z = getelementptr inbounds %class.aiVector3t, ptr %4, i32 0, i32 2
  %5 = load float, ptr %z, align 4
  call void @_ZN13aiQuaterniontIfEC2Effff(ptr noundef nonnull align 4 dereferenceable(16) %q2, float noundef 0.000000e+00, float noundef %1, float noundef %3, float noundef %5)
  call void @llvm.memcpy.p0.p0.i64(ptr align 4 %q, ptr align 4 %this1, i64 16, i1 false)
  call void @llvm.memcpy.p0.p0.i64(ptr align 4 %qinv, ptr align 4 %q, i64 16, i1 false)
  %call = call noundef nonnull align 4 dereferenceable(16) ptr @_ZN13aiQuaterniontIfE9ConjugateEv(ptr noundef nonnull align 4 dereferenceable(16) %qinv)
  %call3 = call { <2 x float>, <2 x float> } @_ZNK13aiQuaterniontIfEmlERKS0_(ptr noundef nonnull align 4 dereferenceable(16) %q, ptr noundef nonnull align 4 dereferenceable(16) %q2)
  %6 = getelementptr inbounds { <2 x float>, <2 x float> }, ptr %ref.tmp2, i32 0, i32 0
  %7 = extractvalue { <2 x float>, <2 x float> } %call3, 0
  store <2 x float> %7, ptr %6, align 4
  %8 = getelementptr inbounds { <2 x float>, <2 x float> }, ptr %ref.tmp2, i32 0, i32 1
  %9 = extractvalue { <2 x float>, <2 x float> } %call3, 1
  store <2 x float> %9, ptr %8, align 4
  %call4 = call { <2 x float>, <2 x float> } @_ZNK13aiQuaterniontIfEmlERKS0_(ptr noundef nonnull align 4 dereferenceable(16) %ref.tmp2, ptr noundef nonnull align 4 dereferenceable(16) %qinv)
  %10 = getelementptr inbounds { <2 x float>, <2 x float> }, ptr %ref.tmp, i32 0, i32 0
  %11 = extractvalue { <2 x float>, <2 x float> } %call4, 0
  store <2 x float> %11, ptr %10, align 4
  %12 = getelementptr inbounds { <2 x float>, <2 x float> }, ptr %ref.tmp, i32 0, i32 1
  %13 = extractvalue { <2 x float>, <2 x float> } %call4, 1
  store <2 x float> %13, ptr %12, align 4
  call void @llvm.memcpy.p0.p0.i64(ptr align 4 %q, ptr align 4 %ref.tmp, i64 16, i1 false)
  %x5 = getelementptr inbounds %class.aiQuaterniont, ptr %q, i32 0, i32 1
  %14 = load float, ptr %x5, align 4
  %y6 = getelementptr inbounds %class.aiQuaterniont, ptr %q, i32 0, i32 2
  %15 = load float, ptr %y6, align 4
  %z7 = getelementptr inbounds %class.aiQuaterniont, ptr %q, i32 0, i32 3
  %16 = load float, ptr %z7, align 4
  call void @_ZN10aiVector3tIfEC2Efff(ptr noundef nonnull align 4 dereferenceable(12) %retval, float noundef %14, float noundef %15, float noundef %16)
  call void @llvm.memcpy.p0.p0.i64(ptr align 8 %retval.coerce, ptr align 4 %retval, i64 12, i1 false)
  %17 = load { <2 x float>, float }, ptr %retval.coerce, align 8
  ret { <2 x float>, float } %17
}

; Function Attrs: mustprogress uwtable
define void @aiVector3RotateByQuaternion(ptr noundef %v, ptr noundef %q) #12 {
entry:
  %v.addr = alloca ptr, align 8
  %q.addr = alloca ptr, align 8
  %ref.tmp = alloca %class.aiVector3t, align 4
  %tmp.coerce = alloca { <2 x float>, float }, align 8
  store ptr %v, ptr %v.addr, align 8
  store ptr %q, ptr %q.addr, align 8
  %0 = load ptr, ptr %q.addr, align 8
  %1 = load ptr, ptr %v.addr, align 8
  %call = call { <2 x float>, float } @_ZNK13aiQuaterniontIfE6RotateERK10aiVector3tIfE(ptr noundef nonnull align 4 dereferenceable(16) %0, ptr noundef nonnull align 4 dereferenceable(12) %1)
  store { <2 x float>, float } %call, ptr %tmp.coerce, align 8
  call void @llvm.memcpy.p0.p0.i64(ptr align 4 %ref.tmp, ptr align 8 %tmp.coerce, i64 12, i1 false)
  %2 = load ptr, ptr %v.addr, align 8
  call void @llvm.memcpy.p0.p0.i64(ptr align 4 %2, ptr align 4 %ref.tmp, i64 12, i1 false)
  ret void
}