; Function Attrs: mustprogress nofree norecurse nosync nounwind willreturn memory(argmem: readwrite) uwtable
define void @aiVector3RotateByQuaternion(ptr nocapture noundef %v, ptr nocapture noundef readonly %q) local_unnamed_addr #12 {
entry:
  %z.i = getelementptr inbounds i8, ptr %v, i64 8
  %0 = load float, ptr %z.i, align 4
  %q.sroa.0.0.copyload.i = load <2 x float>, ptr %q, align 4
  %q.sroa.7.0.this.sroa_idx.i = getelementptr inbounds i8, ptr %q, i64 8
  %q.sroa.7.0.copyload.i = load <2 x float>, ptr %q.sroa.7.0.this.sroa_idx.i, align 4
  %q.sroa.0.0.vec.extract33.i = extractelement <2 x float> %q.sroa.0.0.copyload.i, i64 0
  %q.sroa.0.4.vec.extract37.i = extractelement <2 x float> %q.sroa.0.0.copyload.i, i64 1
  %fneg.i.i = fneg float %q.sroa.0.4.vec.extract37.i
  %1 = extractelement <2 x float> %q.sroa.7.0.copyload.i, i64 0
  %mul23.i.i = fmul float %1, 0.000000e+00
  %2 = load <2 x float>, ptr %v, align 4
  %3 = fneg <2 x float> %q.sroa.7.0.copyload.i
  %4 = extractelement <2 x float> %2, i64 0
  %neg.i.i = fmul float %4, %fneg.i.i
  %5 = tail call float @llvm.fmuladd.f32(float %q.sroa.0.0.vec.extract33.i, float 0.000000e+00, float %neg.i.i)
  %6 = extractelement <2 x float> %3, i64 0
  %7 = extractelement <2 x float> %2, i64 1
  %8 = tail call float @llvm.fmuladd.f32(float %6, float %7, float %5)
  %9 = extractelement <2 x float> %3, i64 1
  %10 = tail call float @llvm.fmuladd.f32(float %9, float %0, float %8)
  %11 = tail call float @llvm.fmuladd.f32(float %q.sroa.0.0.vec.extract33.i, float %7, float %mul23.i.i)
  %12 = extractelement <2 x float> %q.sroa.7.0.copyload.i, i64 1
  %13 = tail call float @llvm.fmuladd.f32(float %12, float %4, float %11)
  %14 = tail call float @llvm.fmuladd.f32(float %fneg.i.i, float %0, float %13)
  %15 = shufflevector <2 x float> %q.sroa.7.0.copyload.i, <2 x float> %q.sroa.0.0.copyload.i, <2 x i32> <i32 1, i32 3>
  %16 = fmul <2 x float> %15, zeroinitializer
  %17 = shufflevector <2 x float> %q.sroa.0.0.copyload.i, <2 x float> poison, <2 x i32> zeroinitializer
  %18 = insertelement <2 x float> poison, float %0, i64 0
  %19 = shufflevector <2 x float> %18, <2 x float> %2, <2 x i32> <i32 0, i32 2>
  %20 = tail call <2 x float> @llvm.fmuladd.v2f32(<2 x float> %17, <2 x float> %19, <2 x float> %16)
  %21 = shufflevector <2 x float> %q.sroa.0.0.copyload.i, <2 x float> %q.sroa.7.0.copyload.i, <2 x i32> <i32 1, i32 2>
  %22 = shufflevector <2 x float> %2, <2 x float> poison, <2 x i32> <i32 1, i32 poison>
  %23 = insertelement <2 x float> %22, float %0, i64 1
  %24 = tail call <2 x float> @llvm.fmuladd.v2f32(<2 x float> %21, <2 x float> %23, <2 x float> %20)
  %25 = tail call <2 x float> @llvm.fmuladd.v2f32(<2 x float> %3, <2 x float> %2, <2 x float> %24)
  %26 = shufflevector <2 x float> %25, <2 x float> poison, <2 x i32> <i32 1, i32 poison>
  %27 = insertelement <2 x float> %26, float %14, i64 1
  %28 = fmul <2 x float> %17, %27
  %29 = insertelement <2 x float> poison, float %10, i64 0
  %30 = shufflevector <2 x float> %29, <2 x float> poison, <2 x i32> zeroinitializer
  %31 = shufflevector <2 x float> %3, <2 x float> poison, <2 x i32> <i32 poison, i32 0>
  %32 = insertelement <2 x float> %31, float %fneg.i.i, i64 0
  %33 = tail call <2 x float> @llvm.fmuladd.v2f32(<2 x float> %30, <2 x float> %32, <2 x float> %28)
  %34 = shufflevector <2 x float> %27, <2 x float> %25, <2 x i32> <i32 1, i32 2>
  %35 = shufflevector <2 x float> %3, <2 x float> %32, <2 x i32> <i32 1, i32 2>
  %36 = tail call <2 x float> @llvm.fmuladd.v2f32(<2 x float> %34, <2 x float> %35, <2 x float> %33)
  %37 = tail call <2 x float> @llvm.fmuladd.v2f32(<2 x float> %25, <2 x float> %q.sroa.7.0.copyload.i, <2 x float> %36)
  %38 = fmul <2 x float> %q.sroa.0.0.copyload.i, %25
  %mul33.i20.i = extractelement <2 x float> %38, i64 0
  %39 = tail call float @llvm.fmuladd.f32(float %10, float %9, float %mul33.i20.i)
  %40 = extractelement <2 x float> %25, i64 1
  %41 = tail call float @llvm.fmuladd.f32(float %40, float %6, float %39)
  %42 = tail call float @llvm.fmuladd.f32(float %14, float %q.sroa.0.4.vec.extract37.i, float %41)
  store <2 x float> %37, ptr %v, align 4
  store float %42, ptr %z.i, align 4
  ret void
}